; ModuleID = 'bench/linux/original/hwacpi.ll'
source_filename = "bench/linux/original/hwacpi.ll"
target datalayout = "e-m:e-p270:32:32-p271:32:32-p272:64:64-i64:64-i128:128-f80:128-n8:16:32:64-S128"
target triple = "x86_64-unknown-linux-gnu"

%struct.acpi_table_fadt = type <{ %struct.acpi_table_header, i32, i32, i8, i8, i16, i32, i8, i8, i8, i8, i32, i32, i32, i32, i32, i32, i32, i32, i8, i8, i8, i8, i8, i8, i8, i8, i16, i16, i16, i16, i8, i8, i8, i8, i8, i16, i8, i32, %struct.acpi_generic_address, i8, i16, i8, i64, i64, %struct.acpi_generic_address, %struct.acpi_generic_address, %struct.acpi_generic_address, %struct.acpi_generic_address, %struct.acpi_generic_address, %struct.acpi_generic_address, %struct.acpi_generic_address, %struct.acpi_generic_address, %struct.acpi_generic_address, %struct.acpi_generic_address, i64 }>
%struct.acpi_table_header = type { [4 x i8], i32, i8, i8, [6 x i8], [8 x i8], i32, [4 x i8], i32 }
%struct.acpi_generic_address = type <{ i8, i8, i8, i8, i64 }>

@acpi_gbl_reduced_hardware = external dso_local local_unnamed_addr global i8, align 1
@acpi_gbl_FADT = external dso_local local_unnamed_addr global %struct.acpi_table_fadt, align 1
@_acpi_module_name = internal constant [7 x i8] c"hwacpi\00", align 1
@.str = private unnamed_addr constant [43 x i8] c"No SMI_CMD in FADT, mode transition failed\00", align 1
@.str.1 = private unnamed_addr constant [76 x i8] c"No ACPI mode transition supported in this system (enable/disable both zero)\00", align 1
@.str.2 = private unnamed_addr constant [33 x i8] c"Could not write ACPI mode change\00", align 1

; Function Attrs: fn_ret_thunk_extern nounwind null_pointer_is_valid
define dso_local i32 @acpi_hw_set_mode(i32 noundef %0) local_unnamed_addr #0 align 16 {
  %2 = load i8, ptr @acpi_gbl_reduced_hardware, align 1
  %3 = icmp eq i8 %2, 0
  br i1 %3, label %4, label %24

4:                                                ; preds = %1
  %5 = load i32, ptr getelementptr inbounds (%struct.acpi_table_fadt, ptr @acpi_gbl_FADT, i64 0, i32 6), align 1
  %6 = icmp eq i32 %5, 0
  br i1 %6, label %7, label %8

7:                                                ; preds = %4
  tail call void (ptr, i32, ptr, ...) @acpi_error(ptr noundef nonnull @_acpi_module_name, i32 noundef 46, ptr noundef nonnull @.str) #3
  br label %24

8:                                                ; preds = %4
  %9 = load i8, ptr getelementptr inbounds (%struct.acpi_table_fadt, ptr @acpi_gbl_FADT, i64 0, i32 7), align 1
  %10 = icmp ne i8 %9, 0
  %11 = load i8, ptr getelementptr inbounds (%struct.acpi_table_fadt, ptr @acpi_gbl_FADT, i64 0, i32 8), align 1
  %12 = icmp ne i8 %11, 0
  %13 = select i1 %10, i1 true, i1 %12
  br i1 %13, label %15, label %14

14:                                               ; preds = %8
  tail call void (ptr, i32, ptr, ...) @acpi_error(ptr noundef nonnull @_acpi_module_name, i32 noundef 59, ptr noundef nonnull @.str.1) #3
  br label %24

15:                                               ; preds = %8
  switch i32 %0, label %24 [
    i32 1, label %17
    i32 2, label %16
  ]

16:                                               ; preds = %15
  br label %17

17:                                               ; preds = %16, %15
  %18 = phi i8 [ %11, %16 ], [ %9, %15 ]
  %19 = zext i32 %5 to i64
  %20 = zext i8 %18 to i32
  %21 = tail call i32 @acpi_hw_write_port(i64 noundef %19, i32 noundef %20, i32 noundef 8) #3
  %22 = icmp eq i32 %21, 0
  br i1 %22, label %24, label %23

23:                                               ; preds = %17
  tail call void (ptr, i32, i32, ptr, ...) @acpi_exception(ptr noundef nonnull @_acpi_module_name, i32 noundef 93, i32 noundef %21, ptr noundef nonnull @.str.2) #3
  br label %24

24:                                               ; preds = %23, %17, %15, %14, %7, %1
  %25 = phi i32 [ %21, %23 ], [ 0, %14 ], [ 22, %7 ], [ 0, %1 ], [ 4097, %15 ], [ 0, %17 ]
  ret i32 %25
}

; Function Attrs: mustprogress nocallback nofree nosync nounwind willreturn memory(argmem: readwrite)
declare void @llvm.lifetime.start.p0(i64 immarg, ptr nocapture) #1

; Function Attrs: null_pointer_is_valid
declare dso_local void @acpi_error(ptr noundef, i32 noundef, ptr noundef, ...) local_unnamed_addr #2

; Function Attrs: null_pointer_is_valid
declare dso_local i32 @acpi_hw_write_port(i64 noundef, i32 noundef, i32 noundef) local_unnamed_addr #2

; Function Attrs: null_pointer_is_valid
declare dso_local void @acpi_exception(ptr noundef, i32 noundef, i32 noundef, ptr noundef, ...) local_unnamed_addr #2

; Function Attrs: mustprogress nocallback nofree nosync nounwind willreturn memory(argmem: readwrite)
declare void @llvm.lifetime.end.p0(i64 immarg, ptr nocapture) #1

; Function Attrs: fn_ret_thunk_extern nounwind null_pointer_is_valid
define dso_local i32 @acpi_hw_get_mode() local_unnamed_addr #0 align 16 {
  %1 = alloca i32, align 4
  call void @llvm.lifetime.start.p0(i64 4, ptr nonnull %1) #3
  %2 = load i8, ptr @acpi_gbl_reduced_hardware, align 1
  %3 = icmp ne i8 %2, 0
  %4 = load i32, ptr getelementptr inbounds (%struct.acpi_table_fadt, ptr @acpi_gbl_FADT, i64 0, i32 6), align 1
  %5 = icmp eq i32 %4, 0
  %6 = select i1 %3, i1 true, i1 %5
  br i1 %6, label %14, label %7

7:                                                ; preds = %0
  store i32 0, ptr %1, align 4, !annotation !5
  %8 = call i32 @acpi_read_bit_register(i32 noundef 14, ptr noundef nonnull %1) #3
  %9 = icmp eq i32 %8, 0
  br i1 %9, label %10, label %14

10:                                               ; preds = %7
  %11 = load i32, ptr %1, align 4
  %12 = icmp eq i32 %11, 0
  %13 = select i1 %12, i32 2, i32 1
  br label %14

14:                                               ; preds = %10, %7, %0
  %15 = phi i32 [ 1, %0 ], [ 2, %7 ], [ %13, %10 ]
  call void @llvm.lifetime.end.p0(i64 4, ptr nonnull %1) #3
  ret i32 %15
}

; Function Attrs: null_pointer_is_valid
declare dso_local i32 @acpi_read_bit_register(i32 noundef, ptr noundef) local_unnamed_addr #2


!llvm.module.flags = !{!0, !1, !2, !3, !4}

!0 = !{i32 1, !"wchar_size", i32 2}
!1 = !{i32 8, !"cf-protection-branch", i32 1}
!2 = !{i32 4, !"function_return_thunk_extern", i32 1}
!3 = !{i32 4, !"indirect_branch_cs_prefix", i32 1}
!4 = !{i32 4, !"SkipRaxSetup", i32 1}
!5 = !{!"auto-init"}
